; Function Attrs: nounwind uwtable
define hidden void @je_pac_decay_all(ptr noundef %0, ptr noundef %1, ptr noundef %2, ptr noundef captures(none) %3, ptr noundef %4, i1 noundef zeroext %5) local_unnamed_addr #0 {
  %7 = getelementptr inbounds nuw i8, ptr %4, i64 112
  %8 = tail call i64 @je_eset_npages_get(ptr noundef nonnull %7) #9
  %9 = getelementptr inbounds nuw i8, ptr %4, i64 9768
  %10 = tail call i64 @je_eset_npages_get(ptr noundef nonnull %9) #9
  %11 = add i64 %10, %8
  tail call fastcc void @pac_decay_to_limit(ptr noundef %0, ptr noundef %1, ptr noundef %2, ptr noundef %3, ptr noundef %4, i1 noundef zeroext %5, i64 noundef 0, i64 noundef %11)
  ret void
}